target datalayout = "e-m:e-p270:32:32-p271:32:32-p272:64:64-i64:64-i128:128-f80:128-n8:16:32:64-S128"
target triple = "x86_64-pc-linux-gnu"

%struct.RStruct = type { %struct.RBasic, %union.anon.12 }
%struct.RBasic = type { i64, i64 }
%union.anon.12 = type { %struct.anon.13 }
%struct.anon.13 = type { i64, ptr }
%struct.RArray = type { %struct.RBasic, %union.anon.14 }
%union.anon.14 = type { %struct.anon.15 }
%struct.anon.15 = type { i64, %union.anon.16, ptr }
%union.anon.16 = type { i64 }

@rb_eTypeError = external global i64, align 8
@.str.2 = private unnamed_addr constant [45 x i8] c"struct size differs (%ld required %ld given)\00", align 1

; Function Attrs: inlinehint nounwind sspstrong willreturn memory(read) uwtable
define internal i64 @RB_FL_TEST_RAW(i64 noundef %0, i64 noundef %1) #6 {
  %3 = alloca i64, align 8
  %4 = alloca i64, align 8
  store i64 %0, ptr %3, align 8, !tbaa !7
  store i64 %1, ptr %4, align 8, !tbaa !7
  %5 = load i64, ptr %3, align 8, !tbaa !7
  %6 = inttoptr i64 %5 to ptr
  %7 = getelementptr inbounds nuw %struct.RBasic, ptr %6, i32 0, i32 0
  %8 = load i64, ptr %7, align 8, !tbaa !52
  %9 = load i64, ptr %4, align 8, !tbaa !7
  %10 = and i64 %8, %9
  ret i64 %10
}

; Function Attrs: inlinehint nounwind sspstrong willreturn memory(read) uwtable
define internal i64 @RARRAY_EMBED_LEN(i64 noundef %0) #6 {
  %2 = alloca i64, align 8
  %3 = alloca i64, align 8
  store i64 %0, ptr %2, align 8, !tbaa !7
  call void @llvm.lifetime.start.p0(i64 8, ptr %3) #26
  %4 = load i64, ptr %2, align 8, !tbaa !7
  %5 = inttoptr i64 %4 to ptr
  %6 = getelementptr inbounds nuw %struct.RBasic, ptr %5, i32 0, i32 0
  %7 = load i64, ptr %6, align 8, !tbaa !52
  store i64 %7, ptr %3, align 8, !tbaa !7
  %8 = load i64, ptr %3, align 8, !tbaa !7
  %9 = and i64 %8, 4161536
  store i64 %9, ptr %3, align 8, !tbaa !7
  %10 = load i64, ptr %3, align 8, !tbaa !7
  %11 = lshr i64 %10, 15
  store i64 %11, ptr %3, align 8, !tbaa !7
  %12 = load i64, ptr %3, align 8, !tbaa !7
  call void @llvm.lifetime.end.p0(i64 8, ptr %3) #26
  ret i64 %12
}

; Function Attrs: inlinehint nounwind sspstrong willreturn memory(read) uwtable
define internal zeroext i1 @RB_FL_ANY_RAW(i64 noundef %0, i64 noundef %1) #6 {
  %3 = alloca i64, align 8
  %4 = alloca i64, align 8
  store i64 %0, ptr %3, align 8, !tbaa !7
  store i64 %1, ptr %4, align 8, !tbaa !7
  %5 = load i64, ptr %3, align 8, !tbaa !7
  %6 = load i64, ptr %4, align 8, !tbaa !7
  %7 = call i64 @RB_FL_TEST_RAW(i64 noundef %5, i64 noundef %6) #28
  %8 = icmp ne i64 %7, 0
  ret i1 %8
}

; Function Attrs: inlinehint nounwind sspstrong uwtable
define internal ptr @RSTRUCT_CONST_PTR(i64 noundef %0) #1 {
  %2 = alloca ptr, align 8
  %3 = alloca i64, align 8
  %4 = alloca ptr, align 8
  %5 = alloca i32, align 4
  store i64 %0, ptr %3, align 8, !tbaa !7
  call void @llvm.lifetime.start.p0(i64 8, ptr %4) #26
  %6 = load i64, ptr %3, align 8, !tbaa !7
  %7 = inttoptr i64 %6 to ptr
  store ptr %7, ptr %4, align 8, !tbaa !19
  %8 = load i64, ptr %3, align 8, !tbaa !7
  %9 = call i64 @RB_FL_TEST_RAW(i64 noundef %8, i64 noundef 1040384) #28
  %10 = icmp ne i64 %9, 0
  br i1 %10, label %11, label %15

11:                                               ; preds = %1
  %12 = load ptr, ptr %4, align 8, !tbaa !19
  %13 = getelementptr inbounds nuw %struct.RStruct, ptr %12, i32 0, i32 1
  %14 = getelementptr inbounds [1 x i64], ptr %13, i64 0, i64 0
  store ptr %14, ptr %2, align 8
  store i32 1, ptr %5, align 4
  br label %20

15:                                               ; preds = %1
  %16 = load ptr, ptr %4, align 8, !tbaa !19
  %17 = getelementptr inbounds nuw %struct.RStruct, ptr %16, i32 0, i32 1
  %18 = getelementptr inbounds nuw %struct.anon.13, ptr %17, i32 0, i32 1
  %19 = load ptr, ptr %18, align 8, !tbaa !13
  store ptr %19, ptr %2, align 8
  store i32 1, ptr %5, align 4
  br label %20

20:                                               ; preds = %15, %11
  call void @llvm.lifetime.end.p0(i64 8, ptr %4) #26
  %21 = load ptr, ptr %2, align 8
  ret ptr %21
}

; Function Attrs: inlinehint nounwind sspstrong willreturn memory(read) uwtable
define internal i64 @rb_array_len(i64 noundef %0) #6 {
  %2 = alloca i64, align 8
  %3 = alloca i64, align 8
  store i64 %0, ptr %3, align 8, !tbaa !7
  %4 = load i64, ptr %3, align 8, !tbaa !7
  %5 = call zeroext i1 @RB_FL_ANY_RAW(i64 noundef %4, i64 noundef 8192) #28
  br i1 %5, label %6, label %9

6:                                                ; preds = %1
  %7 = load i64, ptr %3, align 8, !tbaa !7
  %8 = call i64 @RARRAY_EMBED_LEN(i64 noundef %7) #28
  store i64 %8, ptr %2, align 8
  br label %15

9:                                                ; preds = %1
  %10 = load i64, ptr %3, align 8, !tbaa !7
  %11 = inttoptr i64 %10 to ptr
  %12 = getelementptr inbounds nuw %struct.RArray, ptr %11, i32 0, i32 1
  %13 = getelementptr inbounds nuw %struct.anon.15, ptr %12, i32 0, i32 0
  %14 = load i64, ptr %13, align 8, !tbaa !13
  store i64 %14, ptr %2, align 8
  br label %15

15:                                               ; preds = %9, %6
  %16 = load i64, ptr %2, align 8
  ret i64 %16
}

; Function Attrs: inlinehint nounwind sspstrong uwtable
define internal i64 @internal_RSTRUCT_GET(i64 noundef %0, i64 noundef %1) #1 {
  %3 = alloca i64, align 8
  %4 = alloca i64, align 8
  store i64 %0, ptr %3, align 8, !tbaa !7
  store i64 %1, ptr %4, align 8, !tbaa !7
  %5 = load i64, ptr %3, align 8, !tbaa !7
  %6 = call ptr @RSTRUCT_CONST_PTR(i64 noundef %5)
  %7 = load i64, ptr %4, align 8, !tbaa !7
  %8 = getelementptr i64, ptr %6, i64 %7
  %9 = load i64, ptr %8, align 8, !tbaa !7
  ret i64 %9
}

; Function Attrs: nounwind sspstrong uwtable
define dso_local i64 @rb_struct_members(i64 noundef %0) #0 {
  %2 = alloca i64, align 8
  %3 = alloca i64, align 8
  store i64 %0, ptr %2, align 8, !tbaa !7
  call void @llvm.lifetime.start.p0(i64 8, ptr %3) #26
  %4 = load i64, ptr %2, align 8, !tbaa !7
  %5 = call i64 @rb_obj_class(i64 noundef %4)
  %6 = call i64 @rb_struct_s_members(i64 noundef %5)
  store i64 %6, ptr %3, align 8, !tbaa !7
  %7 = load i64, ptr %2, align 8, !tbaa !7
  %8 = call i64 @internal_RSTRUCT_LEN(i64 noundef %7)
  %9 = load i64, ptr %3, align 8, !tbaa !7
  %10 = call i64 @rb_array_len(i64 noundef %9) #28
  %11 = icmp ne i64 %8, %10
  br i1 %11, label %12, label %18

12:                                               ; preds = %1
  %13 = load i64, ptr @rb_eTypeError, align 8, !tbaa !7
  %14 = load i64, ptr %3, align 8, !tbaa !7
  %15 = call i64 @rb_array_len(i64 noundef %14) #28
  %16 = load i64, ptr %2, align 8, !tbaa !7
  %17 = call i64 @internal_RSTRUCT_LEN(i64 noundef %16)
  call void (i64, ptr, ...) @rb_raise(i64 noundef %13, ptr noundef @.str.2, i64 noundef %15, i64 noundef %17) #29
  unreachable

18:                                               ; preds = %1
  %19 = load i64, ptr %3, align 8, !tbaa !7
  call void @llvm.lifetime.end.p0(i64 8, ptr %3) #26
  ret i64 %19
}

; Function Attrs: nounwind sspstrong uwtable
define internal i64 @rb_struct_each_pair(i64 noundef %0) #0 {
  %2 = alloca i64, align 8
  %3 = alloca i64, align 8
  %4 = alloca i64, align 8
  %5 = alloca i64, align 8
  %6 = alloca i32, align 4
  %7 = alloca i64, align 8
  %8 = alloca i64, align 8
  %9 = alloca i64, align 8
  %10 = alloca i64, align 8
  store i64 %0, ptr %3, align 8, !tbaa !7
  call void @llvm.lifetime.start.p0(i64 8, ptr %4) #26
  call void @llvm.lifetime.start.p0(i64 8, ptr %5) #26
  br label %11

11:                                               ; preds = %1
  %12 = call i32 @rb_block_given_p()
  %13 = icmp ne i32 %12, 0
  br i1 %13, label %19, label %14

14:                                               ; preds = %11
  %15 = load i64, ptr %3, align 8, !tbaa !7
  %16 = call i64 @rb_frame_this_func()
  %17 = call i64 @rb_id2sym(i64 noundef %16)
  %18 = call i64 @rb_enumeratorize_with_size(i64 noundef %15, i64 noundef %17, i32 noundef 0, ptr noundef null, ptr noundef @struct_enum_size)
  store i64 %18, ptr %2, align 8
  store i32 1, ptr %6, align 4
  br label %69

19:                                               ; preds = %11
  br label %20

20:                                               ; preds = %19
  br label %21

21:                                               ; preds = %20
  %22 = load i64, ptr %3, align 8, !tbaa !7
  %23 = call i64 @rb_struct_members(i64 noundef %22)
  store i64 %23, ptr %4, align 8, !tbaa !7
  %24 = call i32 @rb_block_pair_yield_optimizable()
  %25 = icmp ne i32 %24, 0
  br i1 %25, label %26, label %46

26:                                               ; preds = %21
  store i64 0, ptr %5, align 8, !tbaa !7
  br label %27

27:                                               ; preds = %42, %26
  %28 = load i64, ptr %5, align 8, !tbaa !7
  %29 = load i64, ptr %3, align 8, !tbaa !7
  %30 = call i64 @internal_RSTRUCT_LEN(i64 noundef %29)
  %31 = icmp slt i64 %28, %30
  br i1 %31, label %32, label %45

32:                                               ; preds = %27
  call void @llvm.lifetime.start.p0(i64 8, ptr %7) #26
  %33 = load i64, ptr %4, align 8, !tbaa !7
  %34 = load i64, ptr %5, align 8, !tbaa !7
  %35 = call i64 @rb_ary_entry(i64 noundef %33, i64 noundef %34) #28
  store i64 %35, ptr %7, align 8, !tbaa !7
  call void @llvm.lifetime.start.p0(i64 8, ptr %8) #26
  %36 = load i64, ptr %3, align 8, !tbaa !7
  %37 = load i64, ptr %5, align 8, !tbaa !7
  %38 = call i64 @internal_RSTRUCT_GET(i64 noundef %36, i64 noundef %37)
  store i64 %38, ptr %8, align 8, !tbaa !7
  %39 = load i64, ptr %7, align 8, !tbaa !7
  %40 = load i64, ptr %8, align 8, !tbaa !7
  %41 = call i64 (i32, ...) @rb_yield_values(i32 noundef 2, i64 noundef %39, i64 noundef %40)
  call void @llvm.lifetime.end.p0(i64 8, ptr %8) #26
  call void @llvm.lifetime.end.p0(i64 8, ptr %7) #26
  br label %42

42:                                               ; preds = %32
  %43 = load i64, ptr %5, align 8, !tbaa !7
  %44 = add i64 %43, 1
  store i64 %44, ptr %5, align 8, !tbaa !7
  br label %27, !llvm.loop !47

45:                                               ; preds = %27
  br label %67

46:                                               ; preds = %21
  store i64 0, ptr %5, align 8, !tbaa !7
  br label %47

47:                                               ; preds = %63, %46
  %48 = load i64, ptr %5, align 8, !tbaa !7
  %49 = load i64, ptr %3, align 8, !tbaa !7
  %50 = call i64 @internal_RSTRUCT_LEN(i64 noundef %49)
  %51 = icmp slt i64 %48, %50
  br i1 %51, label %52, label %66

52:                                               ; preds = %47
  call void @llvm.lifetime.start.p0(i64 8, ptr %9) #26
  %53 = load i64, ptr %4, align 8, !tbaa !7
  %54 = load i64, ptr %5, align 8, !tbaa !7
  %55 = call i64 @rb_ary_entry(i64 noundef %53, i64 noundef %54) #28
  store i64 %55, ptr %9, align 8, !tbaa !7
  call void @llvm.lifetime.start.p0(i64 8, ptr %10) #26
  %56 = load i64, ptr %3, align 8, !tbaa !7
  %57 = load i64, ptr %5, align 8, !tbaa !7
  %58 = call i64 @internal_RSTRUCT_GET(i64 noundef %56, i64 noundef %57)
  store i64 %58, ptr %10, align 8, !tbaa !7
  %59 = load i64, ptr %9, align 8, !tbaa !7
  %60 = load i64, ptr %10, align 8, !tbaa !7
  %61 = call i64 @rb_assoc_new(i64 noundef %59, i64 noundef %60)
  %62 = call i64 @rb_yield(i64 noundef %61)
  call void @llvm.lifetime.end.p0(i64 8, ptr %10) #26
  call void @llvm.lifetime.end.p0(i64 8, ptr %9) #26
  br label %63

63:                                               ; preds = %52
  %64 = load i64, ptr %5, align 8, !tbaa !7
  %65 = add i64 %64, 1
  store i64 %65, ptr %5, align 8, !tbaa !7
  br label %47, !llvm.loop !48

66:                                               ; preds = %47
  br label %67

67:                                               ; preds = %66, %45
  %68 = load i64, ptr %3, align 8, !tbaa !7
  store i64 %68, ptr %2, align 8
  store i32 1, ptr %6, align 4
  br label %69

69:                                               ; preds = %67, %14
  call void @llvm.lifetime.end.p0(i64 8, ptr %5) #26
  call void @llvm.lifetime.end.p0(i64 8, ptr %4) #26
  %70 = load i64, ptr %2, align 8
  ret i64 %70
}