; Function Attrs: nounwind sspstrong uwtable
define internal i64 @rb_struct_each_pair(i64 noundef %0) #0 {
  %2 = tail call i32 @rb_block_given_p() #19
  %.not = icmp eq i32 %2, 0
  br i1 %.not, label %3, label %7

3:                                                ; preds = %1
  %4 = tail call i64 @rb_frame_this_func() #19
  %5 = tail call i64 @rb_id2sym(i64 noundef %4) #19
  %6 = tail call i64 @rb_enumeratorize_with_size(i64 noundef %0, i64 noundef %5, i32 noundef 0, ptr noundef null, ptr noundef nonnull @struct_enum_size) #19
  br label %.loopexit

7:                                                ; preds = %1
  %8 = tail call i64 @rb_obj_class(i64 noundef %0) #19
  %9 = tail call i64 @rb_struct_s_members(i64 noundef %8)
  %10 = inttoptr i64 %0 to ptr
  %11 = load i64, ptr %10, align 8, !tbaa !11
  %12 = and i64 %11, 1040384
  %.not.i.i = icmp eq i64 %12, 0
  br i1 %.not.i.i, label %16, label %13

13:                                               ; preds = %7
  %14 = lshr i64 %11, 13
  %15 = and i64 %14, 127
  br label %internal_RSTRUCT_LEN.exit.i

16:                                               ; preds = %7
  %17 = getelementptr inbounds nuw i8, ptr %10, i64 16
  %18 = load i64, ptr %17, align 8, !tbaa !13
  br label %internal_RSTRUCT_LEN.exit.i

internal_RSTRUCT_LEN.exit.i:                      ; preds = %16, %13
  %.0.i.i = phi i64 [ %15, %13 ], [ %18, %16 ]
  %19 = inttoptr i64 %9 to ptr
  %20 = load i64, ptr %19, align 8, !tbaa !11
  %21 = and i64 %20, 8192
  %.not.i6.i = icmp eq i64 %21, 0
  br i1 %.not.i6.i, label %25, label %22

22:                                               ; preds = %internal_RSTRUCT_LEN.exit.i
  %23 = lshr i64 %20, 15
  %24 = and i64 %23, 127
  br label %rb_array_len.exit.i

25:                                               ; preds = %internal_RSTRUCT_LEN.exit.i
  %26 = getelementptr inbounds nuw i8, ptr %19, i64 16
  %27 = load i64, ptr %26, align 8, !tbaa !13
  br label %rb_array_len.exit.i

rb_array_len.exit.i:                              ; preds = %25, %22
  %.0.i7.i = phi i64 [ %24, %22 ], [ %27, %25 ]
  %.not.i = icmp eq i64 %.0.i.i, %.0.i7.i
  br i1 %.not.i, label %rb_struct_members.exit, label %28

28:                                               ; preds = %rb_array_len.exit.i
  %29 = load i64, ptr @rb_eTypeError, align 8, !tbaa !7
  %30 = tail call fastcc i64 @internal_RSTRUCT_LEN(i64 noundef %0)
  tail call void (i64, ptr, ...) @rb_raise(i64 noundef %29, ptr noundef nonnull @.str.2, i64 noundef %.0.i7.i, i64 noundef %30) #21
  unreachable

rb_struct_members.exit:                           ; preds = %rb_array_len.exit.i
  %31 = tail call i32 @rb_block_pair_yield_optimizable() #19
  %.not23 = icmp eq i32 %31, 0
  %32 = getelementptr inbounds nuw i8, ptr %10, i64 16
  %33 = getelementptr inbounds nuw i8, ptr %10, i64 24
  br i1 %.not23, label %.preheader, label %.preheader36

.preheader36:                                     ; preds = %rb_struct_members.exit, %internal_RSTRUCT_GET.exit
  %.022 = phi i64 [ %50, %internal_RSTRUCT_GET.exit ], [ 0, %rb_struct_members.exit ]
  %34 = load i64, ptr %10, align 8, !tbaa !11
  %35 = and i64 %34, 1040384
  %.not.i24 = icmp eq i64 %35, 0
  br i1 %.not.i24, label %internal_RSTRUCT_LEN.exit, label %internal_RSTRUCT_LEN.exit.thread

internal_RSTRUCT_LEN.exit:                        ; preds = %.preheader36
  %36 = load i64, ptr %32, align 8, !tbaa !13
  %37 = icmp slt i64 %.022, %36
  br i1 %37, label %43, label %.loopexit

internal_RSTRUCT_LEN.exit.thread:                 ; preds = %.preheader36
  %38 = lshr i64 %34, 13
  %39 = and i64 %38, 127
  %40 = icmp samesign ult i64 %.022, %39
  br i1 %40, label %41, label %.loopexit

41:                                               ; preds = %internal_RSTRUCT_LEN.exit.thread
  %42 = tail call i64 @rb_ary_entry(i64 noundef %9, i64 noundef %.022) #20
  br label %internal_RSTRUCT_GET.exit

43:                                               ; preds = %internal_RSTRUCT_LEN.exit
  %44 = tail call i64 @rb_ary_entry(i64 noundef %9, i64 noundef %.022) #20
  %45 = load ptr, ptr %33, align 8, !tbaa !13
  br label %internal_RSTRUCT_GET.exit

internal_RSTRUCT_GET.exit:                        ; preds = %41, %43
  %46 = phi i64 [ %42, %41 ], [ %44, %43 ]
  %.0.i.i26 = phi ptr [ %32, %41 ], [ %45, %43 ]
  %47 = getelementptr i64, ptr %.0.i.i26, i64 %.022
  %48 = load i64, ptr %47, align 8, !tbaa !7
  %49 = tail call i64 (i32, ...) @rb_yield_values(i32 noundef 2, i64 noundef %46, i64 noundef %48) #19
  %50 = add nuw nsw i64 %.022, 1
  br label %.preheader36, !llvm.loop !48

.preheader:                                       ; preds = %rb_struct_members.exit, %internal_RSTRUCT_GET.exit32
  %.1 = phi i64 [ %68, %internal_RSTRUCT_GET.exit32 ], [ 0, %rb_struct_members.exit ]
  %51 = load i64, ptr %10, align 8, !tbaa !11
  %52 = and i64 %51, 1040384
  %.not.i27 = icmp eq i64 %52, 0
  br i1 %.not.i27, label %internal_RSTRUCT_LEN.exit29, label %internal_RSTRUCT_LEN.exit29.thread

internal_RSTRUCT_LEN.exit29:                      ; preds = %.preheader
  %53 = load i64, ptr %32, align 8, !tbaa !13
  %54 = icmp slt i64 %.1, %53
  br i1 %54, label %60, label %.loopexit

internal_RSTRUCT_LEN.exit29.thread:               ; preds = %.preheader
  %55 = lshr i64 %51, 13
  %56 = and i64 %55, 127
  %57 = icmp samesign ult i64 %.1, %56
  br i1 %57, label %58, label %.loopexit

58:                                               ; preds = %internal_RSTRUCT_LEN.exit29.thread
  %59 = tail call i64 @rb_ary_entry(i64 noundef %9, i64 noundef %.1) #20
  br label %internal_RSTRUCT_GET.exit32

60:                                               ; preds = %internal_RSTRUCT_LEN.exit29
  %61 = tail call i64 @rb_ary_entry(i64 noundef %9, i64 noundef %.1) #20
  %62 = load ptr, ptr %33, align 8, !tbaa !13
  br label %internal_RSTRUCT_GET.exit32

internal_RSTRUCT_GET.exit32:                      ; preds = %58, %60
  %63 = phi i64 [ %59, %58 ], [ %61, %60 ]
  %.0.i.i31 = phi ptr [ %32, %58 ], [ %62, %60 ]
  %64 = getelementptr i64, ptr %.0.i.i31, i64 %.1
  %65 = load i64, ptr %64, align 8, !tbaa !7
  %66 = tail call i64 @rb_assoc_new(i64 noundef %63, i64 noundef %65) #19
  %67 = tail call i64 @rb_yield(i64 noundef %66) #19
  %68 = add nuw nsw i64 %.1, 1
  br label %.preheader, !llvm.loop !49

.loopexit:                                        ; preds = %internal_RSTRUCT_LEN.exit.thread, %internal_RSTRUCT_LEN.exit, %internal_RSTRUCT_LEN.exit29.thread, %internal_RSTRUCT_LEN.exit29, %3
  %.0 = phi i64 [ %6, %3 ], [ %0, %internal_RSTRUCT_LEN.exit29 ], [ %0, %internal_RSTRUCT_LEN.exit29.thread ], [ %0, %internal_RSTRUCT_LEN.exit ], [ %0, %internal_RSTRUCT_LEN.exit.thread ]
  ret i64 %.0
}